; Function Attrs: nounwind uwtable
define hidden i32 @drsuapi_dissect_struct_DsReplicaConnection04(ptr noundef %0, i32 noundef %1, ptr noundef %2, ptr noundef %3, ptr noundef %4, ptr noundef %5, i32 noundef %6, i32 %7) local_unnamed_addr #0 {
  %9 = getelementptr inbounds nuw i8, ptr %4, i64 28
  %10 = load i32, ptr %9, align 4
  %.not = icmp ne i32 %10, 0
  %11 = and i32 %1, 7
  %.not62 = icmp eq i32 %11, 0
  %or.cond = or i1 %.not62, %.not
  %12 = and i32 %1, -8
  %13 = add i32 %12, 8
  %.0 = select i1 %or.cond, i32 %1, i32 %13
  %.not63 = icmp eq ptr %3, null
  br i1 %.not63, label %18, label %14

14:                                               ; preds = %8
  %15 = tail call ptr @proto_tree_add_item(ptr noundef nonnull %3, i32 noundef %6, ptr noundef %0, i32 noundef %.0, i32 noundef -1, i32 noundef 0) #5
  %16 = load i32, ptr @ett_drsuapi_drsuapi_DsReplicaConnection04, align 4
  %17 = tail call ptr @proto_item_add_subtree(ptr noundef %15, i32 noundef %16) #5
  br label %18

18:                                               ; preds = %14, %8
  %.060 = phi ptr [ %15, %14 ], [ null, %8 ]
  %.059 = phi ptr [ %17, %14 ], [ null, %8 ]
  %19 = load i32, ptr @hf_drsuapi_drsuapi_DsReplicaConnection04_u1, align 4
  %20 = tail call i32 @dissect_ndr_uint64(ptr noundef %0, i32 noundef %.0, ptr noundef %2, ptr noundef %.059, ptr noundef nonnull %4, ptr noundef %5, i32 noundef %19, ptr noundef null) #5
  %21 = load i32, ptr @hf_drsuapi_drsuapi_DsReplicaConnection04_u2, align 4
  %22 = tail call i32 @PIDL_dissect_uint32(ptr noundef %0, i32 noundef %20, ptr noundef %2, ptr noundef %.059, ptr noundef nonnull %4, ptr noundef %5, i32 noundef %21, i32 noundef 0) #5
  %23 = load i32, ptr @hf_drsuapi_drsuapi_DsReplicaConnection04_u3, align 4
  %24 = tail call i32 @PIDL_dissect_uint32(ptr noundef %0, i32 noundef %22, ptr noundef %2, ptr noundef %.059, ptr noundef nonnull %4, ptr noundef %5, i32 noundef %23, i32 noundef 0) #5
  %25 = load i32, ptr @hf_drsuapi_drsuapi_DsReplicaConnection04_bind_guid, align 4
  %26 = tail call i32 @dissect_ndr_uuid_t(ptr noundef %0, i32 noundef %24, ptr noundef %2, ptr noundef %.059, ptr noundef nonnull %4, ptr noundef %5, i32 noundef %25, ptr noundef null) #5
  %27 = load i32, ptr @hf_drsuapi_drsuapi_DsReplicaConnection04_bind_time, align 4
  %28 = tail call i32 @dissect_ndr_nt_NTTIME(ptr noundef %0, i32 noundef %26, ptr noundef %2, ptr noundef %.059, ptr noundef nonnull %4, ptr noundef %5, i32 noundef %27) #5
  %29 = load i32, ptr @hf_drsuapi_drsuapi_DsReplicaConnection04_client_ip_address, align 4
  %30 = tail call ptr @proto_tree_add_item(ptr noundef %.059, i32 noundef %29, ptr noundef %0, i32 noundef %28, i32 noundef 4, i32 noundef 0) #5
  %31 = add i32 %28, 4
  %32 = load i32, ptr @hf_drsuapi_drsuapi_DsReplicaConnection04_u5, align 4
  %33 = tail call i32 @PIDL_dissect_uint32(ptr noundef %0, i32 noundef %31, ptr noundef %2, ptr noundef %.059, ptr noundef nonnull %4, ptr noundef %5, i32 noundef %32, i32 noundef 0) #5
  %34 = sub i32 %33, %.0
  tail call void @proto_item_set_len(ptr noundef %.060, i32 noundef %34) #5
  %35 = getelementptr inbounds nuw i8, ptr %4, i64 72
  %36 = load ptr, ptr %35, align 8
  %37 = getelementptr inbounds nuw i8, ptr %36, i64 96
  %38 = load i32, ptr %37, align 8
  %39 = and i32 %38, 1
  %.not64 = icmp eq i32 %39, 0
  br i1 %.not64, label %46, label %40

40:                                               ; preds = %18
  %41 = load i32, ptr %9, align 4
  %.not65 = icmp ne i32 %41, 0
  %42 = and i32 %33, 7
  %.not66 = icmp eq i32 %42, 0
  %or.cond67 = or i1 %.not66, %.not65
  br i1 %or.cond67, label %46, label %43

43:                                               ; preds = %40
  %44 = and i32 %33, -8
  %45 = add i32 %44, 8
  br label %46

46:                                               ; preds = %40, %43, %18
  %.1 = phi i32 [ %33, %40 ], [ %45, %43 ], [ %33, %18 ]
  ret i32 %.1
}